target datalayout = "e-m:e-p270:32:32-p271:32:32-p272:64:64-i64:64-i128:128-f80:128-n8:16:32:64-S128"
target triple = "x86_64-pc-linux-gnu"

%struct.cli_bc_type = type { i32, ptr, i32, i32, i32 }
%struct.cli_bc = type { %struct.bytecode_metadata, i32, i32, i32, i32, ptr, ptr, ptr, ptr, i64, i32, ptr, ptr, ptr, ptr, i32, i16, ptr, i32, i32, i32, i32, ptr, i32, i32, ptr }
%struct.bytecode_metadata = type { ptr, ptr, i64, i32, i32, i32, i32, i32 }

@cli_apicall_types = external constant [0 x %struct.cli_bc_type], align 8
@.str.305 = private unnamed_addr constant [40 x i8] c"bytecode: type kind mismatch: %u != %u\0A\00", align 1
@.str.306 = private unnamed_addr constant [47 x i8] c"bytecode: type numElements mismatch: %u != %u\0A\00", align 1
@.str.307 = private unnamed_addr constant [45 x i8] c"bytecode: contained type mismatch: %u != %u\0A\00", align 1

; Function Attrs: nounwind uwtable
define internal zeroext i1 @types_equal(ptr noundef %0, ptr noundef %1, i16 noundef zeroext %2, i16 noundef zeroext %3) #0 {
  %5 = alloca i1, align 1
  %6 = alloca ptr, align 8
  %7 = alloca ptr, align 8
  %8 = alloca i16, align 2
  %9 = alloca i16, align 2
  %10 = alloca i32, align 4
  %11 = alloca ptr, align 8
  %12 = alloca ptr, align 8
  store ptr %0, ptr %6, align 8
  store ptr %1, ptr %7, align 8
  store i16 %2, ptr %8, align 2
  store i16 %3, ptr %9, align 2
  %13 = load ptr, ptr %6, align 8
  %14 = getelementptr inbounds %struct.cli_bc, ptr %13, i32 0, i32 6
  %15 = load ptr, ptr %14, align 8
  %16 = load i16, ptr %8, align 2
  %17 = zext i16 %16 to i32
  %18 = sub nsw i32 %17, 65
  %19 = sext i32 %18 to i64
  %20 = getelementptr inbounds %struct.cli_bc_type, ptr %15, i64 %19
  store ptr %20, ptr %11, align 8
  %21 = load i16, ptr %9, align 2
  %22 = zext i16 %21 to i64
  %23 = getelementptr inbounds [0 x %struct.cli_bc_type], ptr @cli_apicall_types, i64 0, i64 %22
  store ptr %23, ptr %12, align 8
  %24 = load ptr, ptr %7, align 8
  %25 = load i16, ptr %9, align 2
  %26 = zext i16 %25 to i64
  %27 = getelementptr inbounds i16, ptr %24, i64 %26
  %28 = load i16, ptr %27, align 2
  %29 = zext i16 %28 to i32
  %30 = load i16, ptr %8, align 2
  %31 = zext i16 %30 to i32
  %32 = add nsw i32 %31, 1
  %33 = icmp eq i32 %29, %32
  br i1 %33, label %34, label %35

34:                                               ; preds = %4
  store i1 true, ptr %5, align 1
  br label %160

35:                                               ; preds = %4
  %36 = load i16, ptr %8, align 2
  %37 = zext i16 %36 to i32
  %38 = add nsw i32 %37, 1
  %39 = trunc i32 %38 to i16
  %40 = load ptr, ptr %7, align 8
  %41 = load i16, ptr %9, align 2
  %42 = zext i16 %41 to i64
  %43 = getelementptr inbounds i16, ptr %40, i64 %42
  store i16 %39, ptr %43, align 2
  %44 = load ptr, ptr %11, align 8
  %45 = getelementptr inbounds %struct.cli_bc_type, ptr %44, i32 0, i32 0
  %46 = load i32, ptr %45, align 8
  %47 = load ptr, ptr %12, align 8
  %48 = getelementptr inbounds %struct.cli_bc_type, ptr %47, i32 0, i32 0
  %49 = load i32, ptr %48, align 8
  %50 = icmp ne i32 %46, %49
  br i1 %50, label %51, label %58

51:                                               ; preds = %35
  %52 = load ptr, ptr %11, align 8
  %53 = getelementptr inbounds %struct.cli_bc_type, ptr %52, i32 0, i32 0
  %54 = load i32, ptr %53, align 8
  %55 = load ptr, ptr %12, align 8
  %56 = getelementptr inbounds %struct.cli_bc_type, ptr %55, i32 0, i32 0
  %57 = load i32, ptr %56, align 8
  call void (ptr, ...) @cli_dbgmsg(ptr noundef @.str.305, i32 noundef %54, i32 noundef %57)
  store i1 false, ptr %5, align 1
  br label %160

58:                                               ; preds = %35
  %59 = load ptr, ptr %11, align 8
  %60 = getelementptr inbounds %struct.cli_bc_type, ptr %59, i32 0, i32 2
  %61 = load i32, ptr %60, align 8
  %62 = load ptr, ptr %12, align 8
  %63 = getelementptr inbounds %struct.cli_bc_type, ptr %62, i32 0, i32 2
  %64 = load i32, ptr %63, align 8
  %65 = icmp ne i32 %61, %64
  br i1 %65, label %66, label %73

66:                                               ; preds = %58
  %67 = load ptr, ptr %11, align 8
  %68 = getelementptr inbounds %struct.cli_bc_type, ptr %67, i32 0, i32 2
  %69 = load i32, ptr %68, align 8
  %70 = load ptr, ptr %12, align 8
  %71 = getelementptr inbounds %struct.cli_bc_type, ptr %70, i32 0, i32 2
  %72 = load i32, ptr %71, align 8
  call void (ptr, ...) @cli_dbgmsg(ptr noundef @.str.306, i32 noundef %69, i32 noundef %72)
  store i1 false, ptr %5, align 1
  br label %160

73:                                               ; preds = %58
  store i32 0, ptr %10, align 4
  br label %74

74:                                               ; preds = %156, %73
  %75 = load i32, ptr %10, align 4
  %76 = load ptr, ptr %11, align 8
  %77 = getelementptr inbounds %struct.cli_bc_type, ptr %76, i32 0, i32 2
  %78 = load i32, ptr %77, align 8
  %79 = icmp ult i32 %75, %78
  br i1 %79, label %80, label %159

80:                                               ; preds = %74
  %81 = load ptr, ptr %12, align 8
  %82 = getelementptr inbounds %struct.cli_bc_type, ptr %81, i32 0, i32 1
  %83 = load ptr, ptr %82, align 8
  %84 = load i32, ptr %10, align 4
  %85 = zext i32 %84 to i64
  %86 = getelementptr inbounds i16, ptr %83, i64 %85
  %87 = load i16, ptr %86, align 2
  %88 = zext i16 %87 to i32
  %89 = icmp slt i32 %88, 69
  br i1 %89, label %90, label %126

90:                                               ; preds = %80
  %91 = load ptr, ptr %11, align 8
  %92 = getelementptr inbounds %struct.cli_bc_type, ptr %91, i32 0, i32 1
  %93 = load ptr, ptr %92, align 8
  %94 = load i32, ptr %10, align 4
  %95 = zext i32 %94 to i64
  %96 = getelementptr inbounds i16, ptr %93, i64 %95
  %97 = load i16, ptr %96, align 2
  %98 = zext i16 %97 to i32
  %99 = load ptr, ptr %12, align 8
  %100 = getelementptr inbounds %struct.cli_bc_type, ptr %99, i32 0, i32 1
  %101 = load ptr, ptr %100, align 8
  %102 = load i32, ptr %10, align 4
  %103 = zext i32 %102 to i64
  %104 = getelementptr inbounds i16, ptr %101, i64 %103
  %105 = load i16, ptr %104, align 2
  %106 = zext i16 %105 to i32
  %107 = icmp ne i32 %98, %106
  br i1 %107, label %108, label %125

108:                                              ; preds = %90
  %109 = load ptr, ptr %11, align 8
  %110 = getelementptr inbounds %struct.cli_bc_type, ptr %109, i32 0, i32 1
  %111 = load ptr, ptr %110, align 8
  %112 = load i32, ptr %10, align 4
  %113 = zext i32 %112 to i64
  %114 = getelementptr inbounds i16, ptr %111, i64 %113
  %115 = load i16, ptr %114, align 2
  %116 = zext i16 %115 to i32
  %117 = load ptr, ptr %12, align 8
  %118 = getelementptr inbounds %struct.cli_bc_type, ptr %117, i32 0, i32 1
  %119 = load ptr, ptr %118, align 8
  %120 = load i32, ptr %10, align 4
  %121 = zext i32 %120 to i64
  %122 = getelementptr inbounds i16, ptr %119, i64 %121
  %123 = load i16, ptr %122, align 2
  %124 = zext i16 %123 to i32
  call void (ptr, ...) @cli_dbgmsg(ptr noundef @.str.307, i32 noundef %116, i32 noundef %124)
  store i1 false, ptr %5, align 1
  br label %160

125:                                              ; preds = %90
  br label %149

126:                                              ; preds = %80
  %127 = load ptr, ptr %6, align 8
  %128 = load ptr, ptr %7, align 8
  %129 = load ptr, ptr %11, align 8
  %130 = getelementptr inbounds %struct.cli_bc_type, ptr %129, i32 0, i32 1
  %131 = load ptr, ptr %130, align 8
  %132 = load i32, ptr %10, align 4
  %133 = zext i32 %132 to i64
  %134 = getelementptr inbounds i16, ptr %131, i64 %133
  %135 = load i16, ptr %134, align 2
  %136 = load ptr, ptr %12, align 8
  %137 = getelementptr inbounds %struct.cli_bc_type, ptr %136, i32 0, i32 1
  %138 = load ptr, ptr %137, align 8
  %139 = load i32, ptr %10, align 4
  %140 = zext i32 %139 to i64
  %141 = getelementptr inbounds i16, ptr %138, i64 %140
  %142 = load i16, ptr %141, align 2
  %143 = zext i16 %142 to i32
  %144 = sub nsw i32 %143, 69
  %145 = trunc i32 %144 to i16
  %146 = call zeroext i1 @types_equal(ptr noundef %127, ptr noundef %128, i16 noundef zeroext %135, i16 noundef zeroext %145)
  br i1 %146, label %148, label %147

147:                                              ; preds = %126
  store i1 false, ptr %5, align 1
  br label %160

148:                                              ; preds = %126
  br label %149

149:                                              ; preds = %148, %125
  %150 = load ptr, ptr %11, align 8
  %151 = getelementptr inbounds %struct.cli_bc_type, ptr %150, i32 0, i32 0
  %152 = load i32, ptr %151, align 8
  %153 = icmp eq i32 %152, 4
  br i1 %153, label %154, label %155

154:                                              ; preds = %149
  br label %159

155:                                              ; preds = %149
  br label %156

156:                                              ; preds = %155
  %157 = load i32, ptr %10, align 4
  %158 = add i32 %157, 1
  store i32 %158, ptr %10, align 4
  br label %74

159:                                              ; preds = %154, %74
  store i1 true, ptr %5, align 1
  br label %160

160:                                              ; preds = %159, %147, %108, %66, %51, %34
  %161 = load i1, ptr %5, align 1
  ret i1 %161
}