; Function Attrs: nounwind uwtable
define internal fastcc noundef zeroext i1 @types_equal(ptr nocapture noundef readonly %0, ptr nocapture noundef %1, i16 noundef zeroext %2, i16 noundef zeroext %3) unnamed_addr #0 {
  %5 = getelementptr inbounds i8, ptr %0, i64 72
  %6 = load ptr, ptr %5, align 8
  %7 = zext i16 %2 to i32
  %8 = zext i16 %2 to i64
  %9 = getelementptr %struct.cli_bc_type, ptr %6, i64 %8
  %10 = getelementptr i8, ptr %9, i64 -2080
  %11 = zext i16 %3 to i64
  %12 = getelementptr inbounds [0 x %struct.cli_bc_type], ptr @cli_apicall_types, i64 0, i64 %11
  %13 = getelementptr inbounds i16, ptr %1, i64 %11
  %14 = load i16, ptr %13, align 2
  %15 = zext i16 %14 to i32
  %16 = add nuw nsw i32 %7, 1
  %17 = icmp eq i32 %16, %15
  br i1 %17, label %.loopexit, label %18

18:                                               ; preds = %4
  %19 = trunc i32 %16 to i16
  store i16 %19, ptr %13, align 2
  %20 = load i32, ptr %10, align 8
  %21 = load i32, ptr %12, align 8
  %.not = icmp eq i32 %20, %21
  br i1 %.not, label %23, label %22

22:                                               ; preds = %18
  tail call void (ptr, ...) @cli_dbgmsg(ptr noundef nonnull @.str.305, i32 noundef %20, i32 noundef %21) #25
  br label %.loopexit

23:                                               ; preds = %18
  %24 = getelementptr i8, ptr %9, i64 -2064
  %25 = load i32, ptr %24, align 8
  %26 = getelementptr inbounds i8, ptr %12, i64 16
  %27 = load i32, ptr %26, align 8
  %.not45 = icmp eq i32 %25, %27
  br i1 %.not45, label %.preheader, label %31

.preheader:                                       ; preds = %23
  %.not54 = icmp eq i32 %25, 0
  br i1 %.not54, label %.loopexit, label %.lr.ph

.lr.ph:                                           ; preds = %.preheader
  %28 = getelementptr inbounds i8, ptr %12, i64 8
  %29 = load ptr, ptr %28, align 8
  %30 = getelementptr i8, ptr %9, i64 -2072
  br label %36

31:                                               ; preds = %23
  tail call void (ptr, ...) @cli_dbgmsg(ptr noundef nonnull @.str.306, i32 noundef %25, i32 noundef %27) #25
  br label %.loopexit

32:                                               ; preds = %51
  %indvars.iv.next = add nuw nsw i64 %indvars.iv, 1
  %33 = load i32, ptr %24, align 8
  %34 = zext i32 %33 to i64
  %35 = icmp ult i64 %indvars.iv.next, %34
  br i1 %35, label %36, label %.loopexit

36:                                               ; preds = %.lr.ph, %32
  %37 = phi i32 [ %20, %.lr.ph ], [ %52, %32 ]
  %indvars.iv = phi i64 [ 0, %.lr.ph ], [ %indvars.iv.next, %32 ]
  %38 = getelementptr inbounds i16, ptr %29, i64 %indvars.iv
  %39 = load i16, ptr %38, align 2
  %40 = icmp ult i16 %39, 69
  %41 = load ptr, ptr %30, align 8
  %42 = getelementptr inbounds i16, ptr %41, i64 %indvars.iv
  %43 = load i16, ptr %42, align 2
  br i1 %40, label %44, label %48

44:                                               ; preds = %36
  %.not46 = icmp eq i16 %43, %39
  br i1 %.not46, label %51, label %45

45:                                               ; preds = %44
  %46 = zext nneg i16 %39 to i32
  %47 = zext i16 %43 to i32
  tail call void (ptr, ...) @cli_dbgmsg(ptr noundef nonnull @.str.307, i32 noundef %47, i32 noundef %46) #25
  br label %.loopexit

48:                                               ; preds = %36
  %49 = add i16 %39, -69
  %50 = tail call fastcc zeroext i1 @types_equal(ptr noundef %0, ptr noundef %1, i16 noundef zeroext %43, i16 noundef zeroext %49)
  br i1 %50, label %._crit_edge, label %.loopexit

._crit_edge:                                      ; preds = %48
  %.pre = load i32, ptr %10, align 8
  br label %51

51:                                               ; preds = %._crit_edge, %44
  %52 = phi i32 [ %.pre, %._crit_edge ], [ %37, %44 ]
  %53 = icmp eq i32 %52, 4
  br i1 %53, label %.loopexit, label %32

.loopexit:                                        ; preds = %48, %51, %32, %.preheader, %4, %45, %31, %22
  %.0 = phi i1 [ false, %22 ], [ false, %31 ], [ false, %45 ], [ true, %4 ], [ true, %.preheader ], [ false, %48 ], [ true, %51 ], [ true, %32 ]
  ret i1 %.0
}